#include <math.h>
#include <stdio.h>
#include <stdlib.h>
#include <string.h>

int main()
{
    int n;
    scanf("%d",&n);
    int sz[100],i;
	for(i=0;i<n;i++)
    {
      scanf("%d",&sz[i]);
	}
    for(i=0;i<n-1;i++)
    {
      int e;
      if(i<n/2)
      {
        e=sz[i];
        sz[i]=sz[n-i-1];
        sz[n-i-1]=e;
	  }
      printf("%d ",sz[i]);
    }
printf("%d",sz[n-1]);    
return 0;
}                                                                                                                                                                                                                                                                                      
    